; Function Attrs: mustprogress nofree norecurse nosync nounwind willreturn memory(argmem: read) uwtable
define noundef i32 @_ZNK8facebook5velox10expression9calculate6Parser8by_state4kindEv(ptr nocapture noundef nonnull readonly align 1 dereferenceable(1) %this) local_unnamed_addr #8 align 2 {
entry:
  %0 = load i8, ptr %this, align 1
  %cmp = icmp eq i8 %0, 0
  br i1 %cmp, label %return, label %if.else

if.else:                                          ; preds = %entry
  %idxprom = sext i8 %0 to i64
  %arrayidx = getelementptr inbounds [0 x i8], ptr @_ZN8facebook5velox10expression9calculate6Parser7yystos_E, i64 0, i64 %idxprom
  %1 = load i8, ptr %arrayidx, align 1
  %conv4 = sext i8 %1 to i32
  br label %return

return:                                           ; preds = %entry, %if.else
  %retval.0 = phi i32 [ %conv4, %if.else ], [ -2, %entry ]
  ret i32 %retval.0
}